Certificate:
    Data:
        Version: 3 (0x2)
        Serial Number: 256 (0x100)
        Signature Algorithm: sha256WithRSAEncryption
        Issuer: C=AU, ST=Some-State, O=Internet Widgits Pty Ltd, CN=rootCA
        Validity
            Not Before: Nov 21 17:50:33 2021 GMT
            Not After : Nov 19 17:50:33 2031 GMT
        Subject: C=AU, ST=Some-State, O=Internet Widgits Pty Ltd, CN=subCA
        Subject Public Key Info:
            Public Key Algorithm: rsaEncryption
                RSA Public-Key: (2048 bit)
                Modulus:
                    00:ac:db:c0:7e:d3:e5:77:dd:dc:8b:e8:74:3a:a7:
                    70:b7:df:64:7d:1d:c0:e7:f1:ba:80:ca:bc:d3:21:
                    0e:3e:f2:86:3f:be:4e:3e:d3:aa:52:a6:e1:6d:db:
                    b8:be:66:b6:ca:0e:23:b3:c1:ed:c1:5f:9c:03:9d:
                    82:2d:a9:8c:a0:3f:0a:04:68:bc:92:a7:fb:fe:5b:
                    20:21:11:77:d5:62:59:ce:04:18:94:09:02:18:51:
                    81:7c:fc:a8:e8:f0:2f:85:f1:e6:29:c3:9d:a1:ca:
                    77:99:10:11:12:d6:b6:b1:b7:18:aa:5f:bc:e2:45:
                    92:1d:e0:ea:e9:87:06:c9:4f:40:a1:f7:49:41:31:
                    fc:4b:7c:6d:37:63:58:5a:e2:1f:90:f1:3c:b4:7d:
                    eb:30:f7:f8:a6:af:1f:b7:b2:92:05:40:c7:48:84:
                    8c:db:a1:80:60:84:f1:8e:60:48:30:29:ac:df:a5:
                    48:da:5a:a6:a7:ba:65:90:b4:6e:b6:5b:fc:20:d8:
                    7d:82:d3:4d:86:4a:af:18:88:d8:1d:56:4b:b6:ef:
                    bb:9b:0f:31:86:6f:3d:38:a8:bc:5a:5f:c7:06:34:
                    26:74:d8:a2:20:18:27:ca:86:ca:f4:b8:bb:b5:a5:
                    36:ec:1d:a1:9f:f5:fa:22:c2:84:18:d5:e9:7d:70:
                    a7:0b
                Exponent: 65537 (0x10001)
        X509v3 extensions:
            X509v3 Subject Key Identifier: 
                CE:FD:E4:EA:4D:81:51:74:81:7A:32:BB:4C:E0:5B:F8:83:94:5F:6C
            X509v3 Authority Key Identifier: 
                keyid:59:05:CD:A6:57:C0:0F:C7:1D:9F:22:A8:63:C5:CA:55:A4:32:26:D2

            X509v3 Basic Constraints: critical
                CA:TRUE
    Signature Algorithm: sha256WithRSAEncryption
         98:c9:04:33:b5:86:67:ca:06:ae:5f:44:a0:a5:8c:3a:cf:f1:
         c1:b7:fa:59:27:b0:d4:fe:d1:fa:38:01:1c:5b:73:79:91:48:
         d0:1e:72:eb:75:16:23:bd:80:28:66:09:cb:fa:ee:5e:4e:31:
         e4:5c:f8:2f:98:41:bf:e3:59:64:f4:1b:54:80:94:75:9d:e2:
         f7:21:d1:2a:34:f2:8c:37:87:03:08:62:b3:bc:21:3d:d0:d9:
         43:c7:9d:17:ea:1a:f1:1c:01:6e:90:97:f8:7d:eb:15:5b:3f:
         fd:40:1d:77:bd:13:f9:06:57:79:d4:cc:02:4d:b9:b5:56:bf:
         6b:67:ce:09:58:3d:45:a2:e2:31:0f:cd:b6:31:41:1f:b6:9d:
         41:6b:0c:9f:18:be:97:d4:a2:da:62:d1:d7:53:06:5e:a0:17:
         c4:ca:5b:60:5e:29:29:f3:f1:af:d7:bc:cf:18:b0:c8:43:31:
         e0:ba:69:d2:2e:0e:5c:87:6b:94:ee:d0:da:69:8c:d5:de:a3:
         d0:4d:61:ef:b3:d7:03:ee:b8:85:b2:b3:ee:ff:5e:38:05:a0:
         79:08:d3:ed:70:c6:0b:36:33:9a:1a:6e:ff:0f:8b:08:71:34:
         b7:e0:93:54:ae:7f:ab:b1:a8:7b:68:f5:e5:af:63:22:bb:17:
         91:61:f6:41
-----BEGIN CERTIFICATE-----
MIIDejCCAmKgAwIBAgICAQAwDQYJKoZIhvcNAQELBQAwVjELMAkGA1UEBhMCQVUx
EzARBgNVBAgMClNvbWUtU3RhdGUxITAfBgNVBAoMGEludGVybmV0IFdpZGdpdHMg
UHR5IEx0ZDEPMA0GA1UEAwwGcm9vdENBMB4XDTIxMTEyMTE3NTAzM1oXDTMxMTEx
OTE3NTAzM1owVTELMAkGA1UEBhMCQVUxEzARBgNVBAgMClNvbWUtU3RhdGUxITAf
BgNVBAoMGEludGVybmV0IFdpZGdpdHMgUHR5IEx0ZDEOMAwGA1UEAwwFc3ViQ0Ew
ggEiMA0GCSqGSIb3DQEBAQUAA4IBDwAwggEKAoIBAQCs28B+0+V33dyL6HQ6p3C3
32R9HcDn8bqAyrzTIQ4+8oY/vk4+06pSpuFt27i+ZrbKDiOzwe3BX5wDnYItqYyg
PwoEaLySp/v+WyAhEXfVYlnOBBiUCQIYUYF8/Kjo8C+F8eYpw52hyneZEBES1rax
txiqX7ziRZId4OrphwbJT0Ch90lBMfxLfG03Y1ha4h+Q8Ty0fesw9/imrx+3spIF
QMdIhIzboYBghPGOYEgwKazfpUjaWqanumWQtG62W/wg2H2C002GSq8YiNgdVku2
77ubDzGGbz04qLxaX8cGNCZ02KIgGCfKhsr0uLu1pTbsHaGf9foiwoQY1el9cKcL
AgMBAAGjUzBRMB0GA1UdDgQWBBTO/eTqTYFRdIF6MrtM4Fv4g5RfbDAfBgNVHSME
GDAWgBRZBc2mV8APxx2fIqhjxcpVpDIm0jAPBgNVHRMBAf8EBTADAQH/MA0GCSqG
SIb3DQEBCwUAA4IBAQCYyQQztYZnygauX0SgpYw6z/HBt/pZJ7DU/tH6OAEcW3N5
kUjQHnLrdRYjvYAoZgnL+u5eTjHkXPgvmEG/41lk9BtUgJR1neL3IdEqNPKMN4cD
CGKzvCE90NlDx50X6hrxHAFukJf4fesVWz/9QB13vRP5Bld51MwCTbm1Vr9rZ84J
WD1FouIxD822MUEftp1BawyfGL6X1KLaYtHXUwZeoBfEyltgXikp8/Gv17zPGLDI
QzHgumnSLg5ch2uU7tDaaYzV3qPQTWHvs9cD7riFsrPu/144BaB5CNPtcMYLNjOa
Gm7/D4sIcTS34JNUrn+rsah7aPXlr2MiuxeRYfZB
-----END CERTIFICATE-----
-----BEGIN CERTIFICATE-----
MIIDjTCCAnWgAwIBAgIUDk0tSL1yoBbKdHcyqxaQTWBI17cwDQYJKoZIhvcNAQEL
BQAwVjELMAkGA1UEBhMCQVUxEzARBgNVBAgMClNvbWUtU3RhdGUxITAfBgNVBAoM
GEludGVybmV0IFdpZGdpdHMgUHR5IEx0ZDEPMA0GA1UEAwwGcm9vdENBMB4XDTIx
MTEyMTE3NTAwMloXDTIxMTIyMTE3NTAwMlowVjELMAkGA1UEBhMCQVUxEzARBgNV
BAgMClNvbWUtU3RhdGUxITAfBgNVBAoMGEludGVybmV0IFdpZGdpdHMgUHR5IEx0
ZDEPMA0GA1UEAwwGcm9vdENBMIIBIjANBgkqhkiG9w0BAQEFAAOCAQ8AMIIBCgKC
AQEAwIknK99Hv+bmv65ogkHeyj41UEt2T2AQxdn4p1lQW8uiBXOgb4dXO2BHYe63
7hNuzieaH9Lbxy2gjwKMHyQ3FtherzqGo3cXfYWqsigS+yRKdIWCcL2xj9dHb95W
UADB8uVzPgc9fC4opPar0HUaIqmIBD7bAUiG9sz5YAZ4g4wrn/EhMcNVqhtjQa7j
wvbkHNLul1/HxuOCpAsBNueiEGDbXcGdjxNiyTYn3KB3ba7qVYTLs8HcPYd05C71
iT3Zi67zgr2b6Otn3x53LHq5nEJUbC4VqK8oR0fTORDZqjuJOGO17Nv8j7vlaWbD
alnYsUR9u/qav9GzxbF6vdEuiQIDAQABo1MwUTAdBgNVHQ4EFgQUWQXNplfAD8cd
nyKoY8XKVaQyJtIwHwYDVR0jBBgwFoAUWQXNplfAD8cdnyKoY8XKVaQyJtIwDwYD
VR0TAQH/BAUwAwEB/zANBgkqhkiG9w0BAQsFAAOCAQEAHvBguIkitB6z7lu8Qulk
Msy7L7/AsVkJnwJM6vggjTHz5KPfULb09/+pjBQZ/2dvKsiNIMrOXwiL1E/5Rzh4
vjJzPYLmsNeFe+poFXmQydhhpZZMf6NmB/m9vSW6wD7iNrH3nmJl9Ob2bicdSjUv
+pPu5Xr0vjBZa5IV/TC9p0V9Se2ZpDXYXtBV4FOm3MliVL0h4hNDOZ7BA/kXgfr0
4QLGQhvP1DMxRKPlWGR3FqP+Ln77Drfkw6HYirtaYXtmJ4FWmhop7lGTnB8wjJLP
BwdJCz8BMsKzfy7xKRxJmeP0IhHe28XN1qi7ZHOfZd18q5W4gXaFktphXZJH6dMT
0w==
-----END CERTIFICATE-----
