-----BEGIN CERTIFICATE-----
MIIDkTCCAnmgAwIBAgIUBMTGBfeu4SzguyqlOwl2QeUzjyQwDQYJKoZIhvcNAQEL
BQAwWDELMAkGA1UEBhMCRVMxDDAKBgNVBAgMA01BRDEMMAoGA1UEBwwDTUFEMRsw
GQYDVQQKDBJEaXN0cmlidXRlZFNlY3JldHMxEDAOBgNVBAMMB3Jvb3RfY2EwHhcN
MjExMTI3MTQxODA3WhcNMjExMjI3MTQxODA3WjBYMQswCQYDVQQGEwJFUzEMMAoG
A1UECAwDTUFEMQwwCgYDVQQHDANNQUQxGzAZBgNVBAoMEkRpc3RyaWJ1dGVkU2Vj
cmV0czEQMA4GA1UEAwwHcm9vdF9jYTCCASIwDQYJKoZIhvcNAQEBBQADggEPADCC
AQoCggEBAKvNoPCCt8zfPe+juj7EStsr74eM8mWC2j3w/ZfTYvYajLa/SpDhm/CN
z+xpR0m/MV+V7JZBnCKpSuarRwHYCHaUHIflkNDvN5RzdKg0EcNrWxsNmH6cydEp
BKqDrVaBMPdqtiC4E2ET3gtO6+ZjOjJfe8ANnUilJyjZqxp22HlXmQy13RY1f4gO
S80F6kF0hnECSYpg+r4PLPWhLamoPDZ1AFsyKak/HBlr06doCH1d6XSot66kJeF7
vHVRQTkSrf5yHUG44Ee9hvhy39Eo0uvofQFJwwYd7DAdy6XEkejYPiMWv122hWoS
ptfGzP3ghx4Mu11BVbXp8XXXziJ7U7UCAwEAAaNTMFEwHQYDVR0OBBYEFFDtkFPs
wvJeFkoy5FH4VfwfgYbsMB8GA1UdIwQYMBaAFFDtkFPswvJeFkoy5FH4VfwfgYbs
MA8GA1UdEwEB/wQFMAMBAf8wDQYJKoZIhvcNAQELBQADggEBAEfsXBA3sr8JGA8V
taM+XjVowfJ3R8kIMWrCVMvPrBoOYLWwp9inClCtxd+kj4y6EN3sgfPsUy+hVDCt
beY2au7I4vao6ti7BZF79YMd8xHq+F6/Vmn1Hy5Hakchx4mTc3KZdCvYW62bOO96
r6FtugxHW/5ODc0wdJgBN7LLVIcU1BuZ0T4n7JJj90iaMgb1Yb2dUWhn4VCC69SO
dIlr3FQ+kgembiExwXiz32ptvoo8lEdw8m74iUnnsRjm8d+QusPjEjnqvfFPfLqM
iMkJLnXnLI9tCSY48P/he0dYc+oHEg7c4IbGWN80aKJKc64HBYjw5sVbZErioNp9
vVyjTVQ=
-----END CERTIFICATE-----
Certificate:
    Data:
        Version: 3 (0x2)
        Serial Number: 256 (0x100)
        Signature Algorithm: sha256WithRSAEncryption
        Issuer: C=ES, ST=MAD, L=MAD, O=DistributedSecrets, CN=root_ca
        Validity
            Not Before: Nov 27 14:18:20 2021 GMT
            Not After : Nov 25 14:18:20 2031 GMT
        Subject: C=ES, ST=MAD, O=DistributedSecrets, CN=sub_ca_0100
        Subject Public Key Info:
            Public Key Algorithm: rsaEncryption
                RSA Public-Key: (2048 bit)
                Modulus:
                    00:b9:76:9c:40:7e:f1:9b:99:47:cb:c4:47:8e:e2:
                    f2:59:75:8e:13:29:c8:20:05:25:1c:3f:50:70:f4:
                    ad:d2:ae:60:20:99:fb:fb:c8:98:30:4e:55:09:fa:
                    ad:eb:75:69:52:ad:65:e7:17:97:29:a2:23:cf:64:
                    12:24:a4:90:64:47:0b:63:24:b4:60:bb:cf:60:4f:
                    5d:68:e3:19:32:f1:53:6e:f3:b5:f7:05:34:88:e1:
                    bd:d7:f6:71:d0:51:c3:04:99:e9:81:d4:5f:a5:38:
                    cc:4b:e3:7e:d7:0a:fa:f6:d7:90:28:39:39:17:9c:
                    e6:be:5e:eb:e8:f6:48:d8:68:b2:21:99:27:72:4f:
                    a7:af:fe:39:b9:05:3a:d7:00:3f:fc:5b:34:61:47:
                    c2:a4:39:8d:c9:b6:74:15:3a:1d:0a:40:7c:95:0d:
                    e5:bc:59:55:ca:bb:47:29:98:c7:37:b0:85:db:73:
                    89:ab:36:8d:09:b9:4b:d1:11:88:95:f9:75:b3:b8:
                    84:94:43:44:ed:be:f9:f9:de:15:ee:dc:fc:ee:dd:
                    12:12:6f:64:72:29:c0:7d:5e:7d:48:df:f2:52:88:
                    4a:fb:9b:b8:a3:38:cf:b0:e3:65:fa:6d:50:ac:d7:
                    60:1e:94:a7:1b:d8:70:76:96:a1:97:e2:fb:b3:9c:
                    31:69
                Exponent: 65537 (0x10001)
        X509v3 extensions:
            X509v3 Subject Key Identifier: 
                6F:40:9E:FC:2C:7E:46:72:EF:50:11:07:77:A2:03:4A:DF:99:A8:1B
            X509v3 Authority Key Identifier: 
                keyid:50:ED:90:53:EC:C2:F2:5E:16:4A:32:E4:51:F8:55:FC:1F:81:86:EC

            X509v3 Basic Constraints: critical
                CA:TRUE
    Signature Algorithm: sha256WithRSAEncryption
         4a:ab:46:fb:a6:bb:7b:24:e3:f9:f9:7e:a5:c5:b5:bb:5a:06:
         e9:b9:f1:3c:65:72:39:be:d5:36:94:42:2a:d1:3d:96:0b:fd:
         6c:ca:3d:a8:43:84:d4:c8:5e:22:4e:f5:c4:fb:e4:7b:27:57:
         c8:fa:cb:f8:80:a1:3c:f8:5c:5d:62:33:a4:aa:98:29:28:b6:
         4d:ab:13:6b:0d:0b:89:f9:6a:3a:55:08:ea:5f:e7:2f:e1:9f:
         52:1d:0a:7f:f1:f3:3e:77:22:3f:99:6e:2e:18:37:f6:34:80:
         aa:0c:23:54:0d:9b:03:46:74:b0:63:1e:9d:e3:3d:09:8d:e1:
         93:b1:68:cf:ca:7b:a7:ee:fc:35:5a:1d:a8:b2:80:94:d5:d0:
         2d:d5:2d:74:7a:f5:d1:e1:d1:f8:b8:05:78:75:ab:0e:07:7b:
         bc:4c:11:2e:ce:39:f3:19:52:53:95:fd:df:0c:e2:ef:8a:d2:
         21:91:83:a6:2e:a1:9e:5b:b2:8d:32:ec:54:17:79:de:65:9f:
         17:a4:c9:bf:2d:40:09:5b:a0:df:a2:0d:b2:1e:36:6b:6c:00:
         29:cd:ef:fa:41:10:cd:c4:0e:7e:a1:44:98:a9:39:a8:f4:cb:
         36:5f:d4:16:6a:62:6e:b4:36:95:d0:31:ef:fb:4b:54:da:2d:
         82:9a:4d:25
-----BEGIN CERTIFICATE-----
MIIDdTCCAl2gAwIBAgICAQAwDQYJKoZIhvcNAQELBQAwWDELMAkGA1UEBhMCRVMx
DDAKBgNVBAgMA01BRDEMMAoGA1UEBwwDTUFEMRswGQYDVQQKDBJEaXN0cmlidXRl
ZFNlY3JldHMxEDAOBgNVBAMMB3Jvb3RfY2EwHhcNMjExMTI3MTQxODIwWhcNMzEx
MTI1MTQxODIwWjBOMQswCQYDVQQGEwJFUzEMMAoGA1UECAwDTUFEMRswGQYDVQQK
DBJEaXN0cmlidXRlZFNlY3JldHMxFDASBgNVBAMMC3N1Yl9jYV8wMTAwMIIBIjAN
BgkqhkiG9w0BAQEFAAOCAQ8AMIIBCgKCAQEAuXacQH7xm5lHy8RHjuLyWXWOEynI
IAUlHD9QcPSt0q5gIJn7+8iYME5VCfqt63VpUq1l5xeXKaIjz2QSJKSQZEcLYyS0
YLvPYE9daOMZMvFTbvO19wU0iOG91/Zx0FHDBJnpgdRfpTjMS+N+1wr69teQKDk5
F5zmvl7r6PZI2GiyIZknck+nr/45uQU61wA//Fs0YUfCpDmNybZ0FTodCkB8lQ3l
vFlVyrtHKZjHN7CF23OJqzaNCblL0RGIlfl1s7iElENE7b75+d4V7tz87t0SEm9k
cinAfV59SN/yUohK+5u4ozjPsONl+m1QrNdgHpSnG9hwdpahl+L7s5wxaQIDAQAB
o1MwUTAdBgNVHQ4EFgQUb0Ce/Cx+RnLvUBEHd6IDSt+ZqBswHwYDVR0jBBgwFoAU
UO2QU+zC8l4WSjLkUfhV/B+BhuwwDwYDVR0TAQH/BAUwAwEB/zANBgkqhkiG9w0B
AQsFAAOCAQEASqtG+6a7eyTj+fl+pcW1u1oG6bnxPGVyOb7VNpRCKtE9lgv9bMo9
qEOE1MheIk71xPvkeydXyPrL+IChPPhcXWIzpKqYKSi2TasTaw0LiflqOlUI6l/n
L+GfUh0Kf/HzPnciP5luLhg39jSAqgwjVA2bA0Z0sGMeneM9CY3hk7Foz8p7p+78
NVodqLKAlNXQLdUtdHr10eHR+LgFeHWrDgd7vEwRLs458xlSU5X93wzi74rSIZGD
pi6hnluyjTLsVBd53mWfF6TJvy1ACVug36INsh42a2wAKc3v+kEQzcQOfqFEmKk5
qPTLNl/UFmpibrQ2ldAx7/tLVNotgppNJQ==
-----END CERTIFICATE-----
