-----BEGIN CERTIFICATE-----
MIIDkTCCAnmgAwIBAgIUAe2TBC7kHYZh04a8KNLG8KWYTPowDQYJKoZIhvcNAQEL
BQAwWDELMAkGA1UEBhMCRVMxDDAKBgNVBAgMA01BRDEMMAoGA1UEBwwDTUFEMRsw
GQYDVQQKDBJEaXN0cmlidXRlZFNlY3JldHMxEDAOBgNVBAMMB3Jvb3RfY2EwHhcN
MjExMjAxMTY1NDQ1WhcNMjExMjMxMTY1NDQ1WjBYMQswCQYDVQQGEwJFUzEMMAoG
A1UECAwDTUFEMQwwCgYDVQQHDANNQUQxGzAZBgNVBAoMEkRpc3RyaWJ1dGVkU2Vj
cmV0czEQMA4GA1UEAwwHcm9vdF9jYTCCASIwDQYJKoZIhvcNAQEBBQADggEPADCC
AQoCggEBAJ7HpHmDJZzct2N7YMPlN6ovHvQhxQOGqi4sSRMyPsBDZS389Juv9D0w
Om9T08RdPtWhQZ7dvaJ7DEhvgC3xenN933u1Y6XiIyj4EDU8C8Ow109WsyWRQrzO
AaMG3IGU3IuDqHSdwlp8iqb4rviroObaVTq8hfi1kdA2R33ZsSmXLgjyT8O+VDbL
MVhc1NSLdq1jw6hOivqnWHkRkx+T8ppzOKpIDXlQBXodp2b7HtqP55KmkfDzLJiA
Ljo4UqhCVJ1H6M1bjczsqdr3myjd2jvXMQ7/pOCybAkcd5jBJrN0O0DSVuGCKzpY
RBpbLly+1sTFNcmWiS7khaGmWIatJMkCAwEAAaNTMFEwHQYDVR0OBBYEFMXRy30H
VnGn0slIkyMIBOkiRe3WMB8GA1UdIwQYMBaAFMXRy30HVnGn0slIkyMIBOkiRe3W
MA8GA1UdEwEB/wQFMAMBAf8wDQYJKoZIhvcNAQELBQADggEBAIc7MojgL5fua6SK
+UhbRmuCyXrAnHpZfJVRLYjrgFA5JS2t8jozBqRXwy0sQXtaxOoyMy5tWr695IPp
pE71HPdaHf+Lv0udrkVM//mm9IXQP0PxfogYSkhn2o0z7jcNuiHmG7ZR8Z5wCkme
IUO3R45DCfs5XMnlkfZBKIhTZ7XlHqFbc4cqTesP/Hgjq/gxXgl0xNBGUoZGs6l6
DOhm7b9nvNyvTY7bb4dRmBaXgj/wVEByKOAH3X61qxe0/qCVKDNeQzsD1IjvIqC4
phtwBcLmoR0XpQR441wA4z+CK2qmT6z8w1yFIpoQXpkv0MhU3UaQ6FXG8dC1KkZF
hXLFRdI=
-----END CERTIFICATE-----
Certificate:
    Data:
        Version: 3 (0x2)
        Serial Number: 256 (0x100)
        Signature Algorithm: sha256WithRSAEncryption
        Issuer: C=ES, ST=MAD, L=MAD, O=DistributedSecrets, CN=root_ca
        Validity
            Not Before: Dec  1 16:55:41 2021 GMT
            Not After : Nov 29 16:55:41 2031 GMT
        Subject: C=ES, ST=MAD, O=DistributedSecrets, CN=sub_ca_0100
        Subject Public Key Info:
            Public Key Algorithm: rsaEncryption
                RSA Public-Key: (2048 bit)
                Modulus:
                    00:cc:9d:15:79:f0:66:a2:cf:d2:d9:33:ca:ed:8f:
                    db:4c:7e:a4:a0:a0:43:c6:a5:3f:96:f1:6c:bc:86:
                    35:d0:e8:4e:0e:18:16:3f:10:03:64:08:4d:15:da:
                    11:cc:e4:1e:ba:d3:27:2c:50:f9:ed:9d:4e:60:4d:
                    99:43:60:69:46:7b:94:c6:33:9d:3a:2c:a8:e8:d1:
                    75:75:86:0c:5f:e3:93:95:6f:ba:3c:10:03:56:3e:
                    22:bc:b5:fe:61:c2:a2:e1:83:cc:aa:52:25:56:7b:
                    ad:f8:bf:98:ea:fa:34:25:3a:86:64:c4:f1:91:fa:
                    db:22:c1:6f:f7:e1:84:0e:fd:18:36:59:64:57:45:
                    16:98:61:8a:62:fc:bd:5a:2c:c6:54:d5:2b:c7:b2:
                    28:b2:ae:c6:f8:3a:62:bf:db:4d:2f:b3:03:cb:a7:
                    0c:4f:3c:71:62:b3:62:5c:44:5d:ae:a0:10:00:d0:
                    56:8a:31:f8:d9:4c:c4:39:a1:3b:2c:8f:a9:bb:a7:
                    7b:34:2f:61:f9:f8:bd:70:af:5e:70:63:87:75:97:
                    89:13:00:cf:95:f2:cf:6c:ca:d9:e6:ea:07:d6:dd:
                    9a:60:08:2b:05:4e:43:44:a7:0b:d6:9c:b4:a3:96:
                    f4:f3:dc:36:ea:60:0e:61:d1:66:45:79:32:97:f6:
                    16:cf
                Exponent: 65537 (0x10001)
        X509v3 extensions:
            X509v3 Subject Key Identifier: 
                1A:B5:F1:D6:C3:82:59:1B:1A:BE:0C:E6:C5:4B:51:7F:B6:B3:61:F6
            X509v3 Authority Key Identifier: 
                keyid:C5:D1:CB:7D:07:56:71:A7:D2:C9:48:93:23:08:04:E9:22:45:ED:D6

            X509v3 Basic Constraints: critical
                CA:TRUE
    Signature Algorithm: sha256WithRSAEncryption
         1c:89:0d:27:6d:f2:27:d5:87:32:84:37:f0:66:b2:07:47:9f:
         31:83:61:21:0e:68:9b:e2:a3:67:b1:b7:d4:14:ce:14:a7:14:
         1d:98:13:d4:35:09:d2:7f:73:fb:6e:6c:5a:36:86:4d:d3:2c:
         51:ce:7a:e8:31:a5:34:b9:7f:40:8b:80:92:ab:f2:ac:8c:09:
         ad:0f:10:31:75:07:e1:df:70:08:b1:75:ec:07:9e:d0:f5:81:
         ba:4b:53:da:44:95:6e:9c:92:6a:f8:6d:74:64:2a:ed:b5:34:
         c0:0e:ed:35:6f:f9:9b:9b:03:71:47:c6:6f:1b:77:70:8f:a6:
         4b:70:ac:28:69:77:f9:fc:7a:ae:d9:a7:d0:ea:1b:63:bc:a5:
         43:2d:a2:fc:58:11:5a:8d:d3:be:48:ac:46:38:90:b9:18:40:
         08:c7:bd:35:6e:40:9a:f4:43:48:c8:5b:68:25:6f:f7:eb:a3:
         2d:a3:1e:29:e6:79:c4:36:d0:a6:d9:80:34:d7:69:bd:7d:7b:
         6a:75:ea:42:10:ce:bd:a4:63:81:9c:e2:67:c7:37:ba:59:ac:
         47:55:c4:d5:91:15:f6:e8:17:72:66:0e:f3:c3:4f:f7:e6:3b:
         8d:24:46:0c:c8:03:b2:3f:22:68:3d:f1:8d:91:f4:95:3b:7d:
         bc:5e:19:c7
-----BEGIN CERTIFICATE-----
MIIDdTCCAl2gAwIBAgICAQAwDQYJKoZIhvcNAQELBQAwWDELMAkGA1UEBhMCRVMx
DDAKBgNVBAgMA01BRDEMMAoGA1UEBwwDTUFEMRswGQYDVQQKDBJEaXN0cmlidXRl
ZFNlY3JldHMxEDAOBgNVBAMMB3Jvb3RfY2EwHhcNMjExMjAxMTY1NTQxWhcNMzEx
MTI5MTY1NTQxWjBOMQswCQYDVQQGEwJFUzEMMAoGA1UECAwDTUFEMRswGQYDVQQK
DBJEaXN0cmlidXRlZFNlY3JldHMxFDASBgNVBAMMC3N1Yl9jYV8wMTAwMIIBIjAN
BgkqhkiG9w0BAQEFAAOCAQ8AMIIBCgKCAQEAzJ0VefBmos/S2TPK7Y/bTH6koKBD
xqU/lvFsvIY10OhODhgWPxADZAhNFdoRzOQeutMnLFD57Z1OYE2ZQ2BpRnuUxjOd
Oiyo6NF1dYYMX+OTlW+6PBADVj4ivLX+YcKi4YPMqlIlVnut+L+Y6vo0JTqGZMTx
kfrbIsFv9+GEDv0YNllkV0UWmGGKYvy9WizGVNUrx7Iosq7G+Dpiv9tNL7MDy6cM
TzxxYrNiXERdrqAQANBWijH42UzEOaE7LI+pu6d7NC9h+fi9cK9ecGOHdZeJEwDP
lfLPbMrZ5uoH1t2aYAgrBU5DRKcL1py0o5b089w26mAOYdFmRXkyl/YWzwIDAQAB
o1MwUTAdBgNVHQ4EFgQUGrXx1sOCWRsavgzmxUtRf7azYfYwHwYDVR0jBBgwFoAU
xdHLfQdWcafSyUiTIwgE6SJF7dYwDwYDVR0TAQH/BAUwAwEB/zANBgkqhkiG9w0B
AQsFAAOCAQEAHIkNJ23yJ9WHMoQ38GayB0efMYNhIQ5om+KjZ7G31BTOFKcUHZgT
1DUJ0n9z+25sWjaGTdMsUc566DGlNLl/QIuAkqvyrIwJrQ8QMXUH4d9wCLF17Aee
0PWBuktT2kSVbpySavhtdGQq7bU0wA7tNW/5m5sDcUfGbxt3cI+mS3CsKGl3+fx6
rtmn0OobY7ylQy2i/FgRWo3TvkisRjiQuRhACMe9NW5AmvRDSMhbaCVv9+ujLaMe
KeZ5xDbQptmANNdpvX17anXqQhDOvaRjgZziZ8c3ulmsR1XE1ZEV9ugXcmYO88NP
9+Y7jSRGDMgDsj8iaD3xjZH0lTt9vF4Zxw==
-----END CERTIFICATE-----
